
firmware/prog.elf:     file format elf32-avr

Sections:
Idx Name          Size      VMA       LMA       File off  Algn
  0 .text         00000048  00000000  00000000  00000094  2**2
                  CONTENTS, ALLOC, LOAD, READONLY, CODE
  1 .trampolines  00000000  00000048  00000048  000000dc  2**1
                  CONTENTS, ALLOC, LOAD, READONLY, CODE
  2 .data         0000000b  00800100  00000048  000000dc  2**0
                  CONTENTS, ALLOC, LOAD, DATA
  3 .debug_loc    0000000b  00000000  00000000  000000e7  2**0
                  CONTENTS, READONLY, DEBUGGING
  4 .debug_abbrev 00000145  00000000  00000000  000000f2  2**0
                  CONTENTS, READONLY, DEBUGGING
  5 .debug_info   000004c2  00000000  00000000  00000237  2**0
                  CONTENTS, READONLY, DEBUGGING
  6 .debug_str    000004c7  00000000  00000000  000006f9  2**0
                  CONTENTS, READONLY, DEBUGGING
  7 .debug_pubnames 000001ea  00000000  00000000  00000bc0  2**0
                  CONTENTS, READONLY, DEBUGGING
  8 .debug_pubtypes 000000e4  00000000  00000000  00000daa  2**0
                  CONTENTS, READONLY, DEBUGGING
  9 .debug_line   0000018b  00000000  00000000  00000e8e  2**0
                  CONTENTS, READONLY, DEBUGGING

Disassembly of section .text:

00000000 <main>:
   0:	10 92 c5 00 	sts	0x00C5, r1	; 0x8000c5 <__data_load_start+0x80007d>
   4:	87 e6       	ldi	r24, 0x67	; 103
   6:	80 93 c4 00 	sts	0x00C4, r24	; 0x8000c4 <__data_load_start+0x80007c>
   a:	88 e0       	ldi	r24, 0x08	; 8
   c:	80 93 c1 00 	sts	0x00C1, r24	; 0x8000c1 <__data_load_start+0x800079>
  10:	86 e0       	ldi	r24, 0x06	; 6
  12:	80 93 c2 00 	sts	0x00C2, r24	; 0x8000c2 <__data_load_start+0x80007a>
  16:	25 9a       	sbi	0x04, 5	; 4
  18:	80 e0       	ldi	r24, 0x00	; 0
  1a:	90 e0       	ldi	r25, 0x00	; 0
  1c:	20 e2       	ldi	r18, 0x20	; 32
  1e:	fc 01       	movw	r30, r24
  20:	ea 30       	cpi	r30, 0x0A	; 10
  22:	f1 05       	cpc	r31, r1
  24:	68 f4       	brcc	.+26     	; 0x40 <__SREG__+0x1>
  26:	df 01       	movw	r26, r30
  28:	a0 50       	subi	r26, 0x00	; 0
  2a:	bf 4f       	sbci	r27, 0xFF	; 255
  2c:	3c 91       	ld	r19, X
  2e:	40 91 c0 00 	lds	r20, 0x00C0	; 0x8000c0 <__data_load_start+0x800078>
  32:	40 72       	andi	r20, 0x20	; 32
  34:	40 30       	cpi	r20, 0x00	; 0
  36:	d9 f3       	breq	.-10     	; 0x2e <__zero_reg__+0x2d>
  38:	30 93 c6 00 	sts	0x00C6, r19	; 0x8000c6 <__data_load_start+0x80007e>
  3c:	31 96       	adiw	r30, 0x01	; 1
  3e:	f0 cf       	rjmp	.-32     	; 0x20 <__zero_reg__+0x1f>
  40:	35 b1       	in	r19, 0x05	; 5
  42:	32 27       	eor	r19, r18
  44:	35 b9       	out	0x05, r19	; 5
  46:	eb cf       	rjmp	.-42     	; 0x1e <__zero_reg__+0x1d>
